target datalayout = "e-m:e-p270:32:32-p271:32:32-p272:64:64-i64:64-i128:128-f80:128-n8:16:32:64-S128"
target triple = "x86_64-pc-linux-gnu"

%struct.PageHeaderData = type { %struct.PageXLogRecPtr, i16, i16, i16, i16, i16, i16, i32, [0 x %struct.ItemIdData] }
%struct.PageXLogRecPtr = type { i32, i32 }
%struct.ItemIdData = type { i32 }

; Function Attrs: inlinehint nounwind uwtable
define internal void @PageSetPageSizeAndVersion(ptr noundef %0, i64 noundef %1, i8 noundef zeroext %2) #3 {
  %4 = alloca ptr, align 8
  %5 = alloca i64, align 8
  %6 = alloca i8, align 1
  store ptr %0, ptr %4, align 8
  store i64 %1, ptr %5, align 8
  store i8 %2, ptr %6, align 1
  %7 = load i64, ptr %5, align 8
  %8 = load i8, ptr %6, align 1
  %9 = zext i8 %8 to i64
  %10 = or i64 %7, %9
  %11 = trunc i64 %10 to i16
  %12 = load ptr, ptr %4, align 8
  %13 = getelementptr inbounds nuw %struct.PageHeaderData, ptr %12, i32 0, i32 6
  store i16 %11, ptr %13, align 2
  ret void
}

; Function Attrs: nounwind uwtable
define dso_local void @PageInit(ptr noundef %0, i64 noundef %1, i64 noundef %2) #0 {
  %4 = alloca ptr, align 8
  %5 = alloca i64, align 8
  %6 = alloca i64, align 8
  %7 = alloca ptr, align 8
  %8 = alloca ptr, align 8
  %9 = alloca i32, align 4
  %10 = alloca i64, align 8
  %11 = alloca ptr, align 8
  %12 = alloca ptr, align 8
  store ptr %0, ptr %4, align 8
  store i64 %1, ptr %5, align 8
  store i64 %2, ptr %6, align 8
  call void @llvm.lifetime.start.p0(i64 8, ptr %7) #8
  %13 = load ptr, ptr %4, align 8
  store ptr %13, ptr %7, align 8
  %14 = load i64, ptr %6, align 8
  %15 = add i64 %14, 7
  %16 = and i64 %15, -8
  store i64 %16, ptr %6, align 8
  br label %17

17:                                               ; preds = %3
  call void @llvm.lifetime.start.p0(i64 8, ptr %8) #8
  %18 = load ptr, ptr %7, align 8
  store ptr %18, ptr %8, align 8
  call void @llvm.lifetime.start.p0(i64 4, ptr %9) #8
  store i32 0, ptr %9, align 4
  call void @llvm.lifetime.start.p0(i64 8, ptr %10) #8
  %19 = load i64, ptr %5, align 8
  store i64 %19, ptr %10, align 8
  %20 = load ptr, ptr %8, align 8
  %21 = ptrtoint ptr %20 to i64
  %22 = and i64 %21, 7
  %23 = icmp eq i64 %22, 0
  br i1 %23, label %24, label %47

24:                                               ; preds = %17
  %25 = load i64, ptr %10, align 8
  %26 = and i64 %25, 7
  %27 = icmp eq i64 %26, 0
  br i1 %27, label %28, label %47

28:                                               ; preds = %24
  %29 = load i32, ptr %9, align 4
  %30 = icmp eq i32 %29, 0
  br i1 %30, label %31, label %47

31:                                               ; preds = %28
  %32 = load i64, ptr %10, align 8
  %33 = icmp ule i64 %32, 1024
  br i1 %33, label %34, label %47

34:                                               ; preds = %31
  call void @llvm.lifetime.start.p0(i64 8, ptr %11) #8
  %35 = load ptr, ptr %8, align 8
  store ptr %35, ptr %11, align 8
  call void @llvm.lifetime.start.p0(i64 8, ptr %12) #8
  %36 = load ptr, ptr %11, align 8
  %37 = load i64, ptr %10, align 8
  %38 = getelementptr inbounds nuw i8, ptr %36, i64 %37
  store ptr %38, ptr %12, align 8
  br label %39

39:                                               ; preds = %43, %34
  %40 = load ptr, ptr %11, align 8
  %41 = load ptr, ptr %12, align 8
  %42 = icmp ult ptr %40, %41
  br i1 %42, label %43, label %46

43:                                               ; preds = %39
  %44 = load ptr, ptr %11, align 8
  %45 = getelementptr inbounds nuw i64, ptr %44, i32 1
  store ptr %45, ptr %11, align 8
  store i64 0, ptr %44, align 8
  br label %39, !llvm.loop !4

46:                                               ; preds = %39
  call void @llvm.lifetime.end.p0(i64 8, ptr %12) #8
  call void @llvm.lifetime.end.p0(i64 8, ptr %11) #8
  br label %52

47:                                               ; preds = %31, %28, %24, %17
  %48 = load ptr, ptr %8, align 8
  %49 = load i32, ptr %9, align 4
  %50 = trunc i32 %49 to i8
  %51 = load i64, ptr %10, align 8
  call void @llvm.memset.p0.i64(ptr align 1 %48, i8 %50, i64 %51, i1 false)
  br label %52

52:                                               ; preds = %47, %46
  call void @llvm.lifetime.end.p0(i64 8, ptr %10) #8
  call void @llvm.lifetime.end.p0(i64 4, ptr %9) #8
  call void @llvm.lifetime.end.p0(i64 8, ptr %8) #8
  br label %53

53:                                               ; preds = %52
  br label %54

54:                                               ; preds = %53
  %55 = load ptr, ptr %7, align 8
  %56 = getelementptr inbounds nuw %struct.PageHeaderData, ptr %55, i32 0, i32 2
  store i16 0, ptr %56, align 2
  %57 = load ptr, ptr %7, align 8
  %58 = getelementptr inbounds nuw %struct.PageHeaderData, ptr %57, i32 0, i32 3
  store i16 24, ptr %58, align 4
  %59 = load i64, ptr %5, align 8
  %60 = load i64, ptr %6, align 8
  %61 = sub i64 %59, %60
  %62 = trunc i64 %61 to i16
  %63 = load ptr, ptr %7, align 8
  %64 = getelementptr inbounds nuw %struct.PageHeaderData, ptr %63, i32 0, i32 4
  store i16 %62, ptr %64, align 2
  %65 = load i64, ptr %5, align 8
  %66 = load i64, ptr %6, align 8
  %67 = sub i64 %65, %66
  %68 = trunc i64 %67 to i16
  %69 = load ptr, ptr %7, align 8
  %70 = getelementptr inbounds nuw %struct.PageHeaderData, ptr %69, i32 0, i32 5
  store i16 %68, ptr %70, align 4
  %71 = load ptr, ptr %4, align 8
  %72 = load i64, ptr %5, align 8
  call void @PageSetPageSizeAndVersion(ptr noundef %71, i64 noundef %72, i8 noundef zeroext 4)
  call void @llvm.lifetime.end.p0(i64 8, ptr %7) #8
  ret void
}