; Function Attrs: mustprogress nofree norecurse nosync nounwind willreturn memory(argmem: write) uwtable
define dso_local void @PageInit(ptr noundef %0, i64 noundef %1, i64 noundef %2) local_unnamed_addr #0 {
  %4 = ptrtoint ptr %0 to i64
  %5 = and i64 %4, 7
  %6 = icmp eq i64 %5, 0
  br i1 %6, label %7, label %18

7:                                                ; preds = %3
  %8 = and i64 %1, 7
  %9 = icmp eq i64 %8, 0
  %10 = icmp ult i64 %1, 1025
  %or.cond3 = and i1 %10, %9
  br i1 %or.cond3, label %11, label %18

11:                                               ; preds = %7
  %.not = icmp eq i64 %1, 0
  br i1 %.not, label %.loopexit, label %.lr.ph.preheader

.lr.ph.preheader:                                 ; preds = %11
  %12 = add i64 %1, %4
  %13 = add i64 %4, 8
  %umax = tail call i64 @llvm.umax.i64(i64 %12, i64 %13)
  %14 = xor i64 %4, -1
  %15 = add i64 %umax, %14
  %16 = and i64 %15, -8
  %17 = add i64 %16, 8
  tail call void @llvm.memset.p0.i64(ptr align 8 %0, i8 0, i64 %17, i1 false)
  br label %.loopexit

18:                                               ; preds = %7, %3
  tail call void @llvm.memset.p0.i64(ptr align 1 %0, i8 0, i64 %1, i1 false)
  br label %.loopexit

.loopexit:                                        ; preds = %.lr.ph.preheader, %11, %18
  %19 = add i64 %2, 7
  %20 = and i64 %19, 65528
  %21 = getelementptr inbounds nuw i8, ptr %0, i64 10
  store i16 0, ptr %21, align 2
  %22 = getelementptr inbounds nuw i8, ptr %0, i64 12
  store i16 24, ptr %22, align 4
  %23 = sub i64 %1, %20
  %24 = trunc i64 %23 to i16
  %25 = getelementptr inbounds nuw i8, ptr %0, i64 14
  store i16 %24, ptr %25, align 2
  %26 = getelementptr inbounds nuw i8, ptr %0, i64 16
  store i16 %24, ptr %26, align 4
  %27 = trunc i64 %1 to i16
  %28 = or i16 %27, 4
  %29 = getelementptr inbounds nuw i8, ptr %0, i64 18
  store i16 %28, ptr %29, align 2
  ret void
}